; Function Attrs: uwtable
define void @_ZTv0_n32_NK8QuantLib4Swap9arguments8validateEv(ptr nocapture noundef readonly %this) unnamed_addr #15 align 2 {
entry:
  %vtable = load ptr, ptr %this, align 8, !tbaa !33
  %0 = getelementptr inbounds i8, ptr %vtable, i64 -32
  %1 = load i64, ptr %0, align 8
  %2 = getelementptr inbounds i8, ptr %this, i64 %1
  tail call void @_ZNK8QuantLib4Swap9arguments8validateEv(ptr noundef nonnull align 8 dereferenceable(56) %2)
  ret void
}